target datalayout = "e-m:e-p270:32:32-p271:32:32-p272:64:64-i64:64-i128:128-f80:128-n8:16:32:64-S128"
target triple = "x86_64-pc-linux-gnu"

%"class.std::__cxx11::basic_string" = type { %"struct.std::__cxx11::basic_string<char>::_Alloc_hider", i64, %union.anon }
%"struct.std::__cxx11::basic_string<char>::_Alloc_hider" = type { ptr }
%union.anon = type { i64, [8 x i8] }
%"class.nix::PosIdx" = type { i32 }
%"struct.nix::ExprBlackHole" = type { %"struct.nix::Expr" }
%"struct.nix::Expr" = type { ptr }
%"class.nix::ref" = type { %"class.std::shared_ptr" }
%"class.std::shared_ptr" = type { %"class.std::__shared_ptr" }
%"class.std::__shared_ptr" = type { ptr, %"class.std::__shared_count" }
%"class.std::__shared_count" = type { ptr }
%"class.nix::InstallableAttrPath" = type { %"struct.nix::InstallableValue", ptr, %"class.std::shared_ptr.3", %"class.std::__cxx11::basic_string", %"struct.nix::ExtendedOutputsSpec" }
%"struct.nix::InstallableValue" = type { %"struct.nix::Installable", %"class.nix::ref" }
%"struct.nix::Installable" = type { ptr }
%"class.std::shared_ptr.3" = type { %"class.std::__shared_ptr.4" }
%"class.std::__shared_ptr.4" = type { ptr, %"class.std::__shared_count" }
%"struct.nix::ExtendedOutputsSpec" = type { %"class.std::variant" }
%"class.std::variant" = type { %"struct.std::__detail::__variant::_Variant_base.base", [7 x i8] }
%"struct.std::__detail::__variant::_Variant_base.base" = type { %"struct.std::__detail::__variant::_Move_assign_base.base" }
%"struct.std::__detail::__variant::_Move_assign_base.base" = type { %"struct.std::__detail::__variant::_Copy_assign_base.base" }
%"struct.std::__detail::__variant::_Copy_assign_base.base" = type { %"struct.std::__detail::__variant::_Move_ctor_base.base" }
%"struct.std::__detail::__variant::_Move_ctor_base.base" = type { %"struct.std::__detail::__variant::_Copy_ctor_base.base" }
%"struct.std::__detail::__variant::_Copy_ctor_base.base" = type { %"struct.std::__detail::__variant::_Variant_storage.base" }
%"struct.std::__detail::__variant::_Variant_storage.base" = type { %"union.std::__detail::__variant::_Variadic_union", i8 }
%"union.std::__detail::__variant::_Variadic_union" = type { %"union.std::__detail::__variant::_Variadic_union.0" }
%"union.std::__detail::__variant::_Variadic_union.0" = type { %"struct.std::__detail::__variant::_Uninitialized.1" }
%"struct.std::__detail::__variant::_Uninitialized.1" = type { %"struct.__gnu_cxx::__aligned_membuf" }
%"struct.__gnu_cxx::__aligned_membuf" = type { [56 x i8] }
%"struct.std::pair" = type <{ ptr, %"class.nix::PosIdx", [4 x i8] }>
%"struct.nix::Value" = type { i32, %union.anon.95 }
%union.anon.95 = type { %"struct.nix::Value::StringWithContext" }
%"struct.nix::Value::StringWithContext" = type { ptr, ptr }
%"struct.nix::Value::ClosureThunk" = type { ptr, ptr }
%"struct.nix::Value::FunctionApplicationThunk" = type { ptr, ptr }

@_ZN3nix10eBlackHoleE = external global %"struct.nix::ExprBlackHole", align 8

; Function Attrs: mustprogress nounwind uwtable
define linkonce_odr noundef ptr @_ZNKSt12__shared_ptrIPN3nix5ValueELN9__gnu_cxx12_Lock_policyE2EE3getEv(ptr noundef nonnull align 8 dereferenceable(16) %0) #2 comdat align 2 {
  %2 = alloca ptr, align 8
  store ptr %0, ptr %2, align 8
  %3 = load ptr, ptr %2, align 8
  %4 = getelementptr inbounds %"class.std::__shared_ptr.4", ptr %3, i32 0, i32 0
  %5 = load ptr, ptr %4, align 8
  ret ptr %5
}

; Function Attrs: mustprogress nounwind uwtable
define linkonce_odr noundef nonnull align 4 dereferenceable(4) ptr @_ZNSt10__pair_getILm1EE10__move_getIPN3nix5ValueENS2_6PosIdxEEEOT0_OSt4pairIT_S6_E(ptr noundef nonnull align 8 dereferenceable(12) %0) #2 comdat align 2 {
  %2 = alloca ptr, align 8
  store ptr %0, ptr %2, align 8
  %3 = load ptr, ptr %2, align 8
  %4 = getelementptr inbounds %"struct.std::pair", ptr %3, i32 0, i32 1
  ret ptr %4
}

; Function Attrs: mustprogress nounwind uwtable
define linkonce_odr noundef nonnull align 8 dereferenceable(8) ptr @_ZNSt10__pair_getILm0EE10__move_getIPN3nix5ValueENS2_6PosIdxEEEOT_OSt4pairIS6_T0_E(ptr noundef nonnull align 8 dereferenceable(12) %0) #2 comdat align 2 {
  %2 = alloca ptr, align 8
  store ptr %0, ptr %2, align 8
  %3 = load ptr, ptr %2, align 8
  %4 = getelementptr inbounds %"struct.std::pair", ptr %3, i32 0, i32 0
  ret ptr %4
}

; Function Attrs: mustprogress nounwind uwtable
define linkonce_odr noundef ptr @_ZNKSt19__shared_ptr_accessIPN3nix5ValueELN9__gnu_cxx12_Lock_policyE2ELb0ELb0EE6_M_getEv(ptr noundef nonnull align 1 dereferenceable(1) %0) #2 comdat align 2 {
  %2 = alloca ptr, align 8
  store ptr %0, ptr %2, align 8
  %3 = load ptr, ptr %2, align 8
  %4 = call noundef ptr @_ZNKSt12__shared_ptrIPN3nix5ValueELN9__gnu_cxx12_Lock_policyE2EE3getEv(ptr noundef nonnull align 8 dereferenceable(16) %3) #1
  ret ptr %4
}

; Function Attrs: mustprogress nounwind uwtable
define linkonce_odr void @_ZNSt4pairIPN3nix5ValueENS0_6PosIdxEEC2IRS2_RS3_Qcl16_S_constructibleITL0__TL0_0_EEEEOT_OT0_(ptr noundef nonnull align 8 dereferenceable(12) %0, ptr noundef nonnull align 8 dereferenceable(8) %1, ptr noundef nonnull align 4 dereferenceable(4) %2) unnamed_addr #2 comdat align 2 {
  %4 = alloca ptr, align 8
  %5 = alloca ptr, align 8
  %6 = alloca ptr, align 8
  store ptr %0, ptr %4, align 8
  store ptr %1, ptr %5, align 8
  store ptr %2, ptr %6, align 8
  %7 = load ptr, ptr %4, align 8
  %8 = getelementptr inbounds %"struct.std::pair", ptr %7, i32 0, i32 0
  %9 = load ptr, ptr %5, align 8
  %10 = load ptr, ptr %9, align 8
  store ptr %10, ptr %8, align 8
  %11 = getelementptr inbounds %"struct.std::pair", ptr %7, i32 0, i32 1
  %12 = load ptr, ptr %6, align 8
  call void @llvm.memcpy.p0.p0.i64(ptr align 8 %11, ptr align 4 %12, i64 4, i1 false)
  ret void
}

; Function Attrs: mustprogress uwtable
define linkonce_odr void @_ZN3nix9EvalState12callFunctionERNS_5ValueES2_S2_NS_6PosIdxE(ptr noundef nonnull align 8 dereferenceable(1248) %0, ptr noundef nonnull align 8 dereferenceable(24) %1, ptr noundef nonnull align 8 dereferenceable(24) %2, ptr noundef nonnull align 8 dereferenceable(24) %3, i32 %4) #5 comdat align 2 {
  %6 = alloca %"class.nix::PosIdx", align 4
  %7 = alloca ptr, align 8
  %8 = alloca ptr, align 8
  %9 = alloca ptr, align 8
  %10 = alloca ptr, align 8
  %11 = alloca [1 x ptr], align 8
  %12 = alloca %"class.nix::PosIdx", align 4
  %13 = getelementptr inbounds %"class.nix::PosIdx", ptr %6, i32 0, i32 0
  store i32 %4, ptr %13, align 4
  store ptr %0, ptr %7, align 8
  store ptr %1, ptr %8, align 8
  store ptr %2, ptr %9, align 8
  store ptr %3, ptr %10, align 8
  %14 = load ptr, ptr %7, align 8
  %15 = getelementptr inbounds [1 x ptr], ptr %11, i64 0, i64 0
  %16 = load ptr, ptr %9, align 8
  store ptr %16, ptr %15, align 8
  %17 = load ptr, ptr %8, align 8
  %18 = getelementptr inbounds [1 x ptr], ptr %11, i64 0, i64 0
  %19 = load ptr, ptr %10, align 8
  call void @llvm.memcpy.p0.p0.i64(ptr align 4 %12, ptr align 4 %6, i64 4, i1 false)
  %20 = getelementptr inbounds %"class.nix::PosIdx", ptr %12, i32 0, i32 0
  %21 = load i32, ptr %20, align 4
  call void @_ZN3nix9EvalState12callFunctionERNS_5ValueEmPPS1_S2_NS_6PosIdxE(ptr noundef nonnull align 8 dereferenceable(1248) %14, ptr noundef nonnull align 8 dereferenceable(24) %17, i64 noundef 1, ptr noundef %18, ptr noundef nonnull align 8 dereferenceable(24) %19, i32 %21)
  ret void
}

; Function Attrs: mustprogress nounwind uwtable
define linkonce_odr noundef zeroext i1 @_ZNK3nix5Value5isAppEv(ptr noundef nonnull align 8 dereferenceable(24) %0) #2 comdat align 2 {
  %2 = alloca ptr, align 8
  store ptr %0, ptr %2, align 8
  %3 = load ptr, ptr %2, align 8
  %4 = getelementptr inbounds %"struct.nix::Value", ptr %3, i32 0, i32 0
  %5 = load i32, ptr %4, align 8
  %6 = icmp eq i32 %5, 11
  ret i1 %6
}

; Function Attrs: mustprogress nounwind uwtable
define linkonce_odr void @_ZN3nix5Value7mkThunkEPNS_3EnvEPNS_4ExprE(ptr noundef nonnull align 8 dereferenceable(24) %0, ptr noundef %1, ptr noundef %2) #2 comdat align 2 {
  %4 = alloca ptr, align 8
  %5 = alloca ptr, align 8
  %6 = alloca ptr, align 8
  store ptr %0, ptr %4, align 8
  store ptr %1, ptr %5, align 8
  store ptr %2, ptr %6, align 8
  %7 = load ptr, ptr %4, align 8
  %8 = getelementptr inbounds %"struct.nix::Value", ptr %7, i32 0, i32 0
  store i32 10, ptr %8, align 8
  %9 = load ptr, ptr %5, align 8
  %10 = getelementptr inbounds %"struct.nix::Value", ptr %7, i32 0, i32 1
  %11 = getelementptr inbounds %"struct.nix::Value::ClosureThunk", ptr %10, i32 0, i32 0
  store ptr %9, ptr %11, align 8
  %12 = load ptr, ptr %6, align 8
  %13 = getelementptr inbounds %"struct.nix::Value", ptr %7, i32 0, i32 1
  %14 = getelementptr inbounds %"struct.nix::Value::ClosureThunk", ptr %13, i32 0, i32 1
  store ptr %12, ptr %14, align 8
  ret void
}

; Function Attrs: mustprogress nounwind uwtable
define linkonce_odr void @_ZN3nix5Value11mkBlackholeEv(ptr noundef nonnull align 8 dereferenceable(24) %0) #2 comdat align 2 {
  %2 = alloca ptr, align 8
  store ptr %0, ptr %2, align 8
  %3 = load ptr, ptr %2, align 8
  %4 = getelementptr inbounds %"struct.nix::Value", ptr %3, i32 0, i32 0
  store i32 10, ptr %4, align 8
  %5 = getelementptr inbounds %"struct.nix::Value", ptr %3, i32 0, i32 1
  %6 = getelementptr inbounds %"struct.nix::Value::ClosureThunk", ptr %5, i32 0, i32 1
  store ptr @_ZN3nix10eBlackHoleE, ptr %6, align 8
  ret void
}

; Function Attrs: mustprogress nounwind uwtable
define linkonce_odr noundef zeroext i1 @_ZNK3nix5Value7isThunkEv(ptr noundef nonnull align 8 dereferenceable(24) %0) #2 comdat align 2 {
  %2 = alloca ptr, align 8
  store ptr %0, ptr %2, align 8
  %3 = load ptr, ptr %2, align 8
  %4 = getelementptr inbounds %"struct.nix::Value", ptr %3, i32 0, i32 0
  %5 = load i32, ptr %4, align 8
  %6 = icmp eq i32 %5, 10
  ret i1 %6
}

; Function Attrs: mustprogress nounwind uwtable
define linkonce_odr noundef nonnull align 4 dereferenceable(4) ptr @_ZSt3getILm1EPN3nix5ValueENS0_6PosIdxEEONSt13tuple_elementIXT_ESt4pairIT0_T1_EE4typeEOS8_(ptr noundef nonnull align 8 dereferenceable(12) %0) #2 comdat {
  %2 = alloca ptr, align 8
  store ptr %0, ptr %2, align 8
  %3 = load ptr, ptr %2, align 8
  %4 = call noundef nonnull align 4 dereferenceable(4) ptr @_ZNSt10__pair_getILm1EE10__move_getIPN3nix5ValueENS2_6PosIdxEEEOT0_OSt4pairIT_S6_E(ptr noundef nonnull align 8 dereferenceable(12) %3) #1
  ret ptr %4
}

; Function Attrs: mustprogress nounwind uwtable
define linkonce_odr noundef nonnull align 8 dereferenceable(8) ptr @_ZSt3getILm0EPN3nix5ValueENS0_6PosIdxEEONSt13tuple_elementIXT_ESt4pairIT0_T1_EE4typeEOS8_(ptr noundef nonnull align 8 dereferenceable(12) %0) #2 comdat {
  %2 = alloca ptr, align 8
  store ptr %0, ptr %2, align 8
  %3 = load ptr, ptr %2, align 8
  %4 = call noundef nonnull align 8 dereferenceable(8) ptr @_ZNSt10__pair_getILm0EE10__move_getIPN3nix5ValueENS2_6PosIdxEEEOT_OSt4pairIS6_T0_E(ptr noundef nonnull align 8 dereferenceable(12) %3) #1
  ret ptr %4
}

; Function Attrs: mustprogress nounwind uwtable
define linkonce_odr noundef nonnull align 8 dereferenceable(8) ptr @_ZNKSt19__shared_ptr_accessIPN3nix5ValueELN9__gnu_cxx12_Lock_policyE2ELb0ELb0EEdeEv(ptr noundef nonnull align 1 dereferenceable(1) %0) #2 comdat align 2 {
  %2 = alloca ptr, align 8
  store ptr %0, ptr %2, align 8
  %3 = load ptr, ptr %2, align 8
  br label %4

4:                                                ; preds = %1
  br label %5

5:                                                ; preds = %4
  br label %6

6:                                                ; preds = %5
  %7 = call noundef ptr @_ZNKSt19__shared_ptr_accessIPN3nix5ValueELN9__gnu_cxx12_Lock_policyE2ELb0ELb0EE6_M_getEv(ptr noundef nonnull align 1 dereferenceable(1) %3) #1
  ret ptr %7
}

; Function Attrs: mustprogress uwtable
define { ptr, i32 } @_ZN3nix19InstallableAttrPath7toValueERNS_9EvalStateE(ptr noundef nonnull align 8 dereferenceable(144) %0, ptr noundef nonnull align 8 dereferenceable(1248) %1) unnamed_addr #5 align 2 personality ptr @__gxx_personality_v0 {
  %3 = alloca %"class.nix::PosIdx", align 4
  %4 = alloca ptr, align 8
  %5 = alloca ptr, align 8
  %6 = alloca ptr, align 8
  %7 = alloca ptr, align 8
  %8 = alloca ptr, align 8
  %9 = alloca i32, align 4
  %10 = alloca %"class.nix::PosIdx", align 4
  %11 = alloca %"class.nix::PosIdx", align 4
  %12 = alloca %"struct.std::pair", align 8
  %13 = alloca ptr, align 8
  %14 = alloca ptr, align 8
  %15 = alloca %"struct.std::pair", align 8
  %16 = alloca ptr, align 8
  %17 = alloca ptr, align 8
  %18 = alloca %"class.nix::PosIdx", align 4
  store ptr %0, ptr %13, align 8
  store ptr %1, ptr %14, align 8
  %19 = load ptr, ptr %13, align 8
  %20 = load ptr, ptr %14, align 8
  %21 = getelementptr inbounds %"class.nix::InstallableAttrPath", ptr %19, i32 0, i32 3
  %22 = getelementptr inbounds %"class.nix::InstallableAttrPath", ptr %19, i32 0, i32 1
  %23 = load ptr, ptr %22, align 8
  %24 = load ptr, ptr %14, align 8
  %25 = call noundef ptr @_ZN3nix11MixEvalArgs11getAutoArgsERNS_9EvalStateE(ptr noundef nonnull align 8 dereferenceable(120) %23, ptr noundef nonnull align 8 dereferenceable(1248) %24)
  %26 = getelementptr inbounds %"class.nix::InstallableAttrPath", ptr %19, i32 0, i32 2
  %27 = call noundef nonnull align 8 dereferenceable(8) ptr @_ZNKSt19__shared_ptr_accessIPN3nix5ValueELN9__gnu_cxx12_Lock_policyE2ELb0ELb0EEdeEv(ptr noundef nonnull align 1 dereferenceable(1) %26) #1
  %28 = load ptr, ptr %27, align 8
  %29 = call { ptr, i32 } @_ZN3nix17findAlongAttrPathERNS_9EvalStateERKNSt7__cxx1112basic_stringIcSt11char_traitsIcESaIcEEERNS_8BindingsERNS_5ValueE(ptr noundef nonnull align 8 dereferenceable(1248) %20, ptr noundef nonnull align 8 dereferenceable(32) %21, ptr noundef nonnull align 8 dereferenceable(16) %25, ptr noundef nonnull align 8 dereferenceable(24) %28)
  %30 = getelementptr inbounds { ptr, i32 }, ptr %15, i32 0, i32 0
  %31 = extractvalue { ptr, i32 } %29, 0
  store ptr %31, ptr %30, align 8
  %32 = getelementptr inbounds { ptr, i32 }, ptr %15, i32 0, i32 1
  %33 = extractvalue { ptr, i32 } %29, 1
  store i32 %33, ptr %32, align 8
  %34 = call noundef nonnull align 8 dereferenceable(8) ptr @_ZSt3getILm0EPN3nix5ValueENS0_6PosIdxEEONSt13tuple_elementIXT_ESt4pairIT0_T1_EE4typeEOS8_(ptr noundef nonnull align 8 dereferenceable(12) %15) #1
  store ptr %34, ptr %16, align 8
  %35 = call noundef nonnull align 4 dereferenceable(4) ptr @_ZSt3getILm1EPN3nix5ValueENS0_6PosIdxEEONSt13tuple_elementIXT_ESt4pairIT0_T1_EE4typeEOS8_(ptr noundef nonnull align 8 dereferenceable(12) %15) #1
  store ptr %35, ptr %17, align 8
  %36 = load ptr, ptr %14, align 8
  %37 = load ptr, ptr %16, align 8
  %38 = load ptr, ptr %37, align 8
  %39 = load ptr, ptr %17, align 8
  call void @llvm.memcpy.p0.p0.i64(ptr align 4 %18, ptr align 4 %39, i64 4, i1 false)
  %40 = getelementptr inbounds %"class.nix::PosIdx", ptr %18, i32 0, i32 0
  %41 = load i32, ptr %40, align 4
  store i32 %41, ptr %3, align 4
  store ptr %36, ptr %4, align 8
  store ptr %38, ptr %5, align 8
  %42 = load ptr, ptr %4, align 8
  %43 = load ptr, ptr %5, align 8
  %44 = call noundef zeroext i1 @_ZNK3nix5Value7isThunkEv(ptr noundef nonnull align 8 dereferenceable(24) %43)
  br i1 %44, label %45, label %84

45:                                               ; preds = %2
  %46 = load ptr, ptr %5, align 8
  %47 = getelementptr inbounds %"struct.nix::Value", ptr %46, i32 0, i32 1
  %48 = load ptr, ptr %47, align 8
  store ptr %48, ptr %6, align 8
  %49 = load ptr, ptr %5, align 8
  %50 = getelementptr inbounds %"struct.nix::Value", ptr %49, i32 0, i32 1
  %51 = getelementptr inbounds %"struct.nix::Value::ClosureThunk", ptr %50, i32 0, i32 1
  %52 = load ptr, ptr %51, align 8
  store ptr %52, ptr %7, align 8
  %53 = load ptr, ptr %5, align 8
  invoke void @_ZN3nix5Value11mkBlackholeEv(ptr noundef nonnull align 8 dereferenceable(24) %53)
          to label %54 unwind label %62

54:                                               ; preds = %45
  %55 = load ptr, ptr %7, align 8
  %56 = load ptr, ptr %6, align 8
  %57 = load ptr, ptr %5, align 8
  %58 = load ptr, ptr %55, align 8
  %59 = getelementptr inbounds ptr, ptr %58, i64 4
  %60 = load ptr, ptr %59, align 8
  invoke void %60(ptr noundef nonnull align 8 dereferenceable(8) %55, ptr noundef nonnull align 8 dereferenceable(1248) %42, ptr noundef nonnull align 8 dereferenceable(8) %56, ptr noundef nonnull align 8 dereferenceable(24) %57)
          to label %61 unwind label %62

61:                                               ; preds = %54
  br label %102

62:                                               ; preds = %54, %45
  %63 = landingpad { ptr, i32 }
          catch ptr null
  %64 = extractvalue { ptr, i32 } %63, 0
  store ptr %64, ptr %8, align 8
  %65 = extractvalue { ptr, i32 } %63, 1
  store i32 %65, ptr %9, align 4
  %66 = load ptr, ptr %8, align 8
  %67 = call ptr @__cxa_begin_catch(ptr %66) #1
  %68 = load ptr, ptr %5, align 8
  %69 = load ptr, ptr %6, align 8
  %70 = load ptr, ptr %7, align 8
  invoke void @_ZN3nix5Value7mkThunkEPNS_3EnvEPNS_4ExprE(ptr noundef nonnull align 8 dereferenceable(24) %68, ptr noundef %69, ptr noundef %70)
          to label %71 unwind label %75

71:                                               ; preds = %62
  %72 = load ptr, ptr %5, align 8
  call void @llvm.memcpy.p0.p0.i64(ptr align 4 %10, ptr align 4 %3, i64 4, i1 false)
  %73 = load i32, ptr %10, align 4
  invoke void @_ZN3nix9EvalState20tryFixupBlackHolePosERNS_5ValueENS_6PosIdxE(ptr noundef nonnull align 8 dereferenceable(1248) %42, ptr noundef nonnull align 8 dereferenceable(24) %72, i32 %73)
          to label %74 unwind label %75

74:                                               ; preds = %71
  invoke void @__cxa_rethrow() #16
          to label %101 unwind label %75

75:                                               ; preds = %74, %71, %62
  %76 = landingpad { ptr, i32 }
          cleanup
  %77 = extractvalue { ptr, i32 } %76, 0
  store ptr %77, ptr %8, align 8
  %78 = extractvalue { ptr, i32 } %76, 1
  store i32 %78, ptr %9, align 4
  invoke void @__cxa_end_catch()
          to label %79 unwind label %98

79:                                               ; preds = %75
  %80 = load ptr, ptr %8, align 8
  %81 = load i32, ptr %9, align 4
  %82 = insertvalue { ptr, i32 } poison, ptr %80, 0
  %83 = insertvalue { ptr, i32 } %82, i32 %81, 1
  resume { ptr, i32 } %83

84:                                               ; preds = %2
  %85 = load ptr, ptr %5, align 8
  %86 = call noundef zeroext i1 @_ZNK3nix5Value5isAppEv(ptr noundef nonnull align 8 dereferenceable(24) %85)
  br i1 %86, label %87, label %97

87:                                               ; preds = %84
  %88 = load ptr, ptr %5, align 8
  %89 = getelementptr inbounds %"struct.nix::Value", ptr %88, i32 0, i32 1
  %90 = load ptr, ptr %89, align 8
  %91 = load ptr, ptr %5, align 8
  %92 = getelementptr inbounds %"struct.nix::Value", ptr %91, i32 0, i32 1
  %93 = getelementptr inbounds %"struct.nix::Value::FunctionApplicationThunk", ptr %92, i32 0, i32 1
  %94 = load ptr, ptr %93, align 8
  %95 = load ptr, ptr %5, align 8
  call void @llvm.memcpy.p0.p0.i64(ptr align 4 %11, ptr align 4 %3, i64 4, i1 false)
  %96 = load i32, ptr %11, align 4
  call void @_ZN3nix9EvalState12callFunctionERNS_5ValueES2_S2_NS_6PosIdxE(ptr noundef nonnull align 8 dereferenceable(1248) %42, ptr noundef nonnull align 8 dereferenceable(24) %90, ptr noundef nonnull align 8 dereferenceable(24) %94, ptr noundef nonnull align 8 dereferenceable(24) %95, i32 %96)
  br label %97

97:                                               ; preds = %87, %84
  br label %102

98:                                               ; preds = %75
  %99 = landingpad { ptr, i32 }
          catch ptr null
  %100 = extractvalue { ptr, i32 } %99, 0
  call void @__clang_call_terminate(ptr %100) #17
  unreachable

101:                                              ; preds = %74
  unreachable

102:                                              ; preds = %97, %61
  %103 = load ptr, ptr %16, align 8
  %104 = load ptr, ptr %17, align 8
  call void @_ZNSt4pairIPN3nix5ValueENS0_6PosIdxEEC2IRS2_RS3_Qcl16_S_constructibleITL0__TL0_0_EEEEOT_OT0_(ptr noundef nonnull align 8 dereferenceable(12) %12, ptr noundef nonnull align 8 dereferenceable(8) %103, ptr noundef nonnull align 4 dereferenceable(4) %104) #1
  %105 = load { ptr, i32 }, ptr %12, align 8
  ret { ptr, i32 } %105
}