; Function Attrs: mustprogress uwtable
define { ptr, i32 } @_ZN3nix19InstallableAttrPath7toValueERNS_9EvalStateE(ptr noundef nonnull align 8 dereferenceable(144) %0, ptr noundef nonnull align 8 dereferenceable(1248) %1) unnamed_addr #4 align 2 personality ptr @__gxx_personality_v0 {
  %3 = alloca [1 x ptr], align 8
  %4 = getelementptr inbounds i8, ptr %0, i64 48
  %5 = getelementptr inbounds i8, ptr %0, i64 24
  %6 = load ptr, ptr %5, align 8
  %7 = tail call noundef ptr @_ZN3nix11MixEvalArgs11getAutoArgsERNS_9EvalStateE(ptr noundef nonnull align 8 dereferenceable(120) %6, ptr noundef nonnull align 8 dereferenceable(1248) %1)
  %8 = getelementptr inbounds i8, ptr %0, i64 32
  %9 = load ptr, ptr %8, align 8
  %10 = load ptr, ptr %9, align 8
  %11 = tail call { ptr, i32 } @_ZN3nix17findAlongAttrPathERNS_9EvalStateERKNSt7__cxx1112basic_stringIcSt11char_traitsIcESaIcEEERNS_8BindingsERNS_5ValueE(ptr noundef nonnull align 8 dereferenceable(1248) %1, ptr noundef nonnull align 8 dereferenceable(32) %4, ptr noundef nonnull align 8 dereferenceable(16) %7, ptr noundef nonnull align 8 dereferenceable(24) %10)
  %12 = extractvalue { ptr, i32 } %11, 0
  %13 = extractvalue { ptr, i32 } %11, 1
  %14 = load i32, ptr %12, align 8
  switch i32 %14, label %40 [
    i32 10, label %15
    i32 11, label %31
  ]

15:                                               ; preds = %2
  %16 = getelementptr inbounds i8, ptr %12, i64 8
  %17 = load ptr, ptr %16, align 8
  %18 = getelementptr inbounds i8, ptr %12, i64 16
  %19 = load ptr, ptr %18, align 8
  store i32 10, ptr %12, align 8
  store ptr @_ZN3nix10eBlackHoleE, ptr %18, align 8
  %20 = load ptr, ptr %19, align 8
  %21 = getelementptr inbounds i8, ptr %20, i64 32
  %22 = load ptr, ptr %21, align 8
  invoke void %22(ptr noundef nonnull align 8 dereferenceable(8) %19, ptr noundef nonnull align 8 dereferenceable(1248) %1, ptr noundef nonnull align 8 dereferenceable(8) %17, ptr noundef nonnull align 8 dereferenceable(24) %12)
          to label %40 unwind label %23

23:                                               ; preds = %15
  %24 = landingpad { ptr, i32 }
          catch ptr null
  %25 = extractvalue { ptr, i32 } %24, 0
  %26 = tail call ptr @__cxa_begin_catch(ptr %25) #22
  store i32 10, ptr %12, align 8
  store ptr %17, ptr %16, align 8
  store ptr %19, ptr %18, align 8
  invoke void @_ZN3nix9EvalState20tryFixupBlackHolePosERNS_5ValueENS_6PosIdxE(ptr noundef nonnull align 8 dereferenceable(1248) %1, ptr noundef nonnull align 8 dereferenceable(24) %12, i32 %13)
          to label %27 unwind label %28

27:                                               ; preds = %23
  invoke void @__cxa_rethrow() #23
          to label %39 unwind label %28

28:                                               ; preds = %27, %23
  %29 = landingpad { ptr, i32 }
          cleanup
  invoke void @__cxa_end_catch()
          to label %30 unwind label %36

30:                                               ; preds = %28
  resume { ptr, i32 } %29

31:                                               ; preds = %2
  %32 = getelementptr inbounds i8, ptr %12, i64 8
  %33 = load ptr, ptr %32, align 8
  %34 = getelementptr inbounds i8, ptr %12, i64 16
  %35 = load ptr, ptr %34, align 8
  call void @llvm.lifetime.start.p0(i64 8, ptr nonnull %3)
  store ptr %35, ptr %3, align 8
  call void @_ZN3nix9EvalState12callFunctionERNS_5ValueEmPPS1_S2_NS_6PosIdxE(ptr noundef nonnull align 8 dereferenceable(1248) %1, ptr noundef nonnull align 8 dereferenceable(24) %33, i64 noundef 1, ptr noundef nonnull %3, ptr noundef nonnull align 8 dereferenceable(24) %12, i32 %13)
  call void @llvm.lifetime.end.p0(i64 8, ptr nonnull %3)
  br label %40

36:                                               ; preds = %28
  %37 = landingpad { ptr, i32 }
          catch ptr null
  %38 = extractvalue { ptr, i32 } %37, 0
  tail call void @__clang_call_terminate(ptr %38) #26
  unreachable

39:                                               ; preds = %27
  unreachable

40:                                               ; preds = %2, %31, %15
  ret { ptr, i32 } %11
}